-----BEGIN RSA PRIVATE KEY-----
Proc-Type: 4,ENCRYPTED
DEK-Info: DES-EDE3-CBC,C62B02A683D6C174

QTJd9kh4sjevgj6PhWheGdD52c84afggqh7g4BGhIkOCAtdEfev0Y7NPxK26AVfE
VkZnWBFfhNEdTBxq/s3SvS3UcRXAJmo2GiISIiFHr0QAWmvYh4Mz/goCBmmu6U9+
+EBGTP0hgppvAhcKy8cCJs76RbrEVkXjpn7dVwZyk8kNIgDyovHsnKx/dNu70ofB
wUgbHIX+EjXhjbhrwkHTOXHUMHPsdn9aJm+hbBvwKCnRkZsu3LFyPrXSsP4QBbdN
paRtZBITZfZ+4I8ZUszguQ1ptvjGtGKILXH8KYk0ovAsOONn75cPrtuZnyKY6cCl
BZA8h1URBrlhYi4I3zt/Z40Tf/6BzysK/eNKqN69U3M81auWS66+wCSXHmgSDq6E
wlOnWrAzqDsuHYyp9SOB/iepc5VTtro+6w7xrlElyKtTmGPtUFpQoZ+L2M/lODG8
rMGOodEWgG8qEBhMO1ASoMUVJzGSEddrY0qK8OfaHMdNlolM5LlG9jBo4wAIDwQG
w+CggGoMgzjxQjHHJ76ti57PlyfiCm3W+OBiXb1OjdVEpySdfEaaC4xDr474JYhg
54x44nArBgjMmB5krznoUxUpyRxNPM7rbVSXkxy9n5kJmFPtFxzAkTNfV3+nPNPN
KeNFr2CzpzdspZ/ySy89QE22kbZm/v48CM8O4iYPd358DikQkEgZu6e3QfFAwlzE
RVZPZoGTnjso/rYn4dC9VyI6WX7kZyeP6MCL71OVmh0NttGdUmn+1qs3jJZ0/3Ow
R5sN9+Ieh+32uHWbg5sKK1j/9Sfhigc0KPh4dS3cfQvOUfJnzxEATu+LUcuueJTm
KJF+ZVS2MIOZDdg6gqgIRCzBYzapOLjMQNLGyLEFIR6vMp2Ki6b3Zzty3XxPYjbj
D2EoLf8scZdZMdshuf/BL9POwzkZ7ctqPsrBDmckOmtsSauL/wZ/UdcVpvPBauzK
jq0Ngenqdq4fFRguaCaGUH4Xdlr6oetDQmRqhFQpqrwPLvpdPoMMJ3nniXdYt1NW
GdweJUByWYUT6U5MpFTyW3ri6i/PYftqEka9IGHucJ5GyB6X5NlyDKBn1ElCvPUf
X6xXWJw69xf2Bo2mlUylb6HodY3oRR3PTccuc6/u04e0bZXGoVWeRySkmnqnNh64
qBuExowD4yQ+YjhA//9Qr45EQS7nitBVs5T6x3Mow8rEIkHF6pYjsW3DjjhgSiQk
j89GUVFRnKoewUMPwHjjNxbDqAjEhvesWe0K6KKfjKKSeGYPEavbgGELCsxDXW9o
+MDfA5wTp459A3hGbd6uexlYq8RLfy8qEnecnTDfG1uZSWiJkYBgTgFv27FI55Og
VAlp8OLERljMMBso9VchaaZ0ryXvbEormWW27hK52DEkWnoaNIcrF/8Bmx3vuHlT
pe8hbkFb15CMqF5qTD4gHK8ZtjkinzDv6yFAp2oIrXO5MVdH/2M4so+A5S1/9cti
LWgpMQEMqzrDlmdHrqGNOqOTGOV7WIlQWOoxjtcVd8T6YDe/TaiPQk1+ATmmh8R5
eYuMPRUpNFzN5GQxsA7EkrielpImd0MBWtXSAmBhoW2bjY52FtrGSWpuJNtyAs2a
-----END RSA PRIVATE KEY-----
Certificate:
    Data:
        Version: 3 (0x2)
        Serial Number: 4096 (0x1000)
        Signature Algorithm: sha256WithRSAEncryption
        Issuer: C=BD, ST=Sylhet, L=Sylhet, O=SUST, CN=faruk/emailAddress=omarf6197@gmail.com
        Validity
            Not Before: Jul  7 14:45:10 2024 GMT
            Not After : Jul  7 14:45:10 2025 GMT
        Subject: C=BD, ST=Sylhet, O=SUST, CN=faruk/emailAddress=omarf6197@gmail.com
        Subject Public Key Info:
            Public Key Algorithm: rsaEncryption
                RSA Public-Key: (1024 bit)
                Modulus:
                    00:ef:9b:c4:40:0d:68:a6:6f:62:18:90:fe:71:8c:
                    5d:e9:ed:c5:71:c2:e7:5e:3d:75:fa:59:18:25:22:
                    64:13:65:c8:18:9e:0b:72:1d:5e:ba:3f:81:cf:91:
                    12:28:0e:fd:98:65:28:61:f5:e2:40:d8:13:dd:cf:
                    91:c5:65:c2:ed:70:90:73:ae:94:b3:58:ec:88:8b:
                    d4:8f:f8:a6:66:fe:12:30:94:74:9f:13:53:48:71:
                    fe:e7:db:a6:5f:ea:07:1e:ac:9a:cc:4d:21:b7:7d:
                    a4:9d:19:ed:b7:ef:43:f3:e0:2c:b2:8c:67:3a:fb:
                    d8:85:24:5d:38:f3:77:cf:fd
                Exponent: 65537 (0x10001)
        X509v3 extensions:
            X509v3 Basic Constraints: 
                CA:FALSE
            Netscape Comment: 
                OpenSSL Generated Certificate
            X509v3 Subject Key Identifier: 
                A0:F9:9E:25:F2:26:04:55:E8:83:79:EA:61:68:EF:8B:2C:F5:A3:54
            X509v3 Authority Key Identifier: 
                keyid:57:06:4E:08:A8:D0:F3:A4:AE:71:A3:5A:22:3B:87:72:9C:2B:F5:CD

    Signature Algorithm: sha256WithRSAEncryption
         56:62:a1:7b:76:18:b8:a5:eb:e0:d7:d3:a6:cc:af:81:bf:05:
         69:5a:d6:2a:79:e8:91:74:00:8e:f6:b6:fe:0a:1d:a3:e8:16:
         9b:b6:37:2d:04:e2:5b:da:e1:34:90:60:a3:51:60:36:be:77:
         8c:c1:9e:9d:3e:00:bb:d2:45:6c:80:e7:1e:b0:13:df:4c:6c:
         49:ef:9a:da:e7:24:29:02:4d:f4:70:cb:e7:fe:ce:d3:e5:8d:
         e1:32:3d:03:18:7d:07:07:7d:d3:b8:7d:ce:84:7d:27:eb:89:
         7c:cc:66:66:11:44:f2:4f:ae:99:d9:cf:df:7c:a6:46:5c:ec:
         cd:3d:02:b2:54:01:d6:1d:53:2f:3a:66:61:50:19:1b:f0:c1:
         c4:a7:bd:78:07:a5:cf:ca:f6:e6:a2:d7:a0:95:33:1f:b8:81:
         47:a2:8a:6d:24:f9:89:4b:75:e0:20:0f:84:97:d6:8b:1a:f1:
         c7:34:c9:8c:cf:38:fd:90:5c:b7:9f:14:8e:6c:59:38:6f:c4:
         56:d8:ce:8b:c8:c3:30:50:1a:2a:de:99:7c:c4:9f:1f:4f:03:
         8a:cb:07:ef:f2:b2:d6:d2:c4:d2:59:2f:6d:ed:76:1d:98:6d:
         c3:3a:07:84:51:83:a5:51:d5:a6:3d:1c:e0:d2:16:c5:44:5e:
         28:9b:a5:37
-----BEGIN CERTIFICATE-----
MIIDRjCCAi6gAwIBAgICEAAwDQYJKoZIhvcNAQELBQAwcjELMAkGA1UEBhMCQkQx
DzANBgNVBAgMBlN5bGhldDEPMA0GA1UEBwwGU3lsaGV0MQ0wCwYDVQQKDARTVVNU
MQ4wDAYDVQQDDAVmYXJ1azEiMCAGCSqGSIb3DQEJARYTb21hcmY2MTk3QGdtYWls
LmNvbTAeFw0yNDA3MDcxNDQ1MTBaFw0yNTA3MDcxNDQ1MTBaMGExCzAJBgNVBAYT
AkJEMQ8wDQYDVQQIDAZTeWxoZXQxDTALBgNVBAoMBFNVU1QxDjAMBgNVBAMMBWZh
cnVrMSIwIAYJKoZIhvcNAQkBFhNvbWFyZjYxOTdAZ21haWwuY29tMIGfMA0GCSqG
SIb3DQEBAQUAA4GNADCBiQKBgQDvm8RADWimb2IYkP5xjF3p7cVxwudePXX6WRgl
ImQTZcgYngtyHV66P4HPkRIoDv2YZShh9eJA2BPdz5HFZcLtcJBzrpSzWOyIi9SP
+KZm/hIwlHSfE1NIcf7n26Zf6gcerJrMTSG3faSdGe2370Pz4CyyjGc6+9iFJF04
83fP/QIDAQABo3sweTAJBgNVHRMEAjAAMCwGCWCGSAGG+EIBDQQfFh1PcGVuU1NM
IEdlbmVyYXRlZCBDZXJ0aWZpY2F0ZTAdBgNVHQ4EFgQUoPmeJfImBFXog3nqYWjv
iyz1o1QwHwYDVR0jBBgwFoAUVwZOCKjQ86SucaNaIjuHcpwr9c0wDQYJKoZIhvcN
AQELBQADggEBAFZioXt2GLil6+DX06bMr4G/BWla1ip56JF0AI72tv4KHaPoFpu2
Ny0E4lva4TSQYKNRYDa+d4zBnp0+ALvSRWyA5x6wE99MbEnvmtrnJCkCTfRwy+f+
ztPljeEyPQMYfQcHfdO4fc6EfSfriXzMZmYRRPJPrpnZz998pkZc7M09ArJUAdYd
Uy86ZmFQGRvwwcSnvXgHpc/K9uai16CVMx+4gUeiim0k+YlLdeAgD4SX1osa8cc0
yYzPOP2QXLefFI5sWThvxFbYzovIwzBQGiremXzEnx9PA4rLB+/ystbSxNJZL23t
dh2YbcM6B4RRg6VR1aY9HODSFsVEXiibpTc=
-----END CERTIFICATE-----
